target datalayout = "e-m:e-p270:32:32-p271:32:32-p272:64:64-i64:64-i128:128-f80:128-n8:16:32:64-S128"
target triple = "x86_64-pc-linux-gnu"

; Function Attrs: alwaysinline nounwind willreturn memory(none) uwtable
define internal i32 @av_clip_uintp2_c(i32 noundef %0, i32 noundef %1) #8 {
  %3 = alloca i32, align 4
  %4 = alloca i32, align 4
  %5 = alloca i32, align 4
  store i32 %0, ptr %4, align 4, !tbaa !49
  store i32 %1, ptr %5, align 4, !tbaa !49
  %6 = load i32, ptr %4, align 4, !tbaa !49
  %7 = load i32, ptr %5, align 4, !tbaa !49
  %8 = shl i32 1, %7
  %9 = sub i32 %8, 1
  %10 = xor i32 %9, -1
  %11 = and i32 %6, %10
  %12 = icmp ne i32 %11, 0
  br i1 %12, label %13, label %21

13:                                               ; preds = %2
  %14 = load i32, ptr %4, align 4, !tbaa !49
  %15 = xor i32 %14, -1
  %16 = ashr i32 %15, 31
  %17 = load i32, ptr %5, align 4, !tbaa !49
  %18 = shl i32 1, %17
  %19 = sub i32 %18, 1
  %20 = and i32 %16, %19
  store i32 %20, ptr %3, align 4
  br label %23

21:                                               ; preds = %2
  %22 = load i32, ptr %4, align 4, !tbaa !49
  store i32 %22, ptr %3, align 4
  br label %23

23:                                               ; preds = %21, %13
  %24 = load i32, ptr %3, align 4
  ret i32 %24
}

; Function Attrs: alwaysinline nounwind willreturn memory(none) uwtable
define internal i32 @av_clip_c(i32 noundef %0, i32 noundef %1, i32 noundef %2) #8 {
  %4 = alloca i32, align 4
  %5 = alloca i32, align 4
  %6 = alloca i32, align 4
  %7 = alloca i32, align 4
  store i32 %0, ptr %5, align 4, !tbaa !49
  store i32 %1, ptr %6, align 4, !tbaa !49
  store i32 %2, ptr %7, align 4, !tbaa !49
  %8 = load i32, ptr %5, align 4, !tbaa !49
  %9 = load i32, ptr %6, align 4, !tbaa !49
  %10 = icmp slt i32 %8, %9
  br i1 %10, label %11, label %13

11:                                               ; preds = %3
  %12 = load i32, ptr %6, align 4, !tbaa !49
  store i32 %12, ptr %4, align 4
  br label %21

13:                                               ; preds = %3
  %14 = load i32, ptr %5, align 4, !tbaa !49
  %15 = load i32, ptr %7, align 4, !tbaa !49
  %16 = icmp sgt i32 %14, %15
  br i1 %16, label %17, label %19

17:                                               ; preds = %13
  %18 = load i32, ptr %7, align 4, !tbaa !49
  store i32 %18, ptr %4, align 4
  br label %21

19:                                               ; preds = %13
  %20 = load i32, ptr %5, align 4, !tbaa !49
  store i32 %20, ptr %4, align 4
  br label %21

21:                                               ; preds = %19, %17, %11
  %22 = load i32, ptr %4, align 4
  ret i32 %22
}

; Function Attrs: nounwind uwtable
define internal i32 @mid4_16(ptr noundef %0, ptr noundef %1, ptr noundef %2, ptr noundef %3, ptr noundef %4, ptr noundef %5, i32 noundef %6, i32 noundef %7, i32 noundef %8, i32 noundef %9) #2 {
  %11 = alloca ptr, align 8
  %12 = alloca ptr, align 8
  %13 = alloca ptr, align 8
  %14 = alloca ptr, align 8
  %15 = alloca ptr, align 8
  %16 = alloca ptr, align 8
  %17 = alloca i32, align 4
  %18 = alloca i32, align 4
  %19 = alloca i32, align 4
  %20 = alloca i32, align 4
  store ptr %0, ptr %11, align 8, !tbaa !100
  store ptr %1, ptr %12, align 8, !tbaa !100
  store ptr %2, ptr %13, align 8, !tbaa !100
  store ptr %3, ptr %14, align 8, !tbaa !100
  store ptr %4, ptr %15, align 8, !tbaa !100
  store ptr %5, ptr %16, align 8, !tbaa !100
  store i32 %6, ptr %17, align 4, !tbaa !49
  store i32 %7, ptr %18, align 4, !tbaa !49
  store i32 %8, ptr %19, align 4, !tbaa !49
  store i32 %9, ptr %20, align 4, !tbaa !49
  %21 = load ptr, ptr %11, align 8, !tbaa !100
  %22 = load i32, ptr %18, align 4, !tbaa !49
  %23 = load i32, ptr %19, align 4, !tbaa !49
  %24 = add nsw i32 %22, %23
  %25 = load i32, ptr %17, align 4, !tbaa !49
  %26 = call i32 @av_clip_c(i32 noundef %24, i32 noundef 0, i32 noundef %25) #14
  %27 = sext i32 %26 to i64
  %28 = getelementptr inbounds i16, ptr %21, i64 %27
  %29 = load i16, ptr %28, align 2, !tbaa !106
  %30 = zext i16 %29 to i32
  %31 = load ptr, ptr %12, align 8, !tbaa !100
  %32 = load i32, ptr %18, align 4, !tbaa !49
  %33 = load i32, ptr %19, align 4, !tbaa !49
  %34 = sub nsw i32 %32, %33
  %35 = load i32, ptr %17, align 4, !tbaa !49
  %36 = call i32 @av_clip_c(i32 noundef %34, i32 noundef 0, i32 noundef %35) #14
  %37 = sext i32 %36 to i64
  %38 = getelementptr inbounds i16, ptr %31, i64 %37
  %39 = load i16, ptr %38, align 2, !tbaa !106
  %40 = zext i16 %39 to i32
  %41 = add nsw i32 %30, %40
  %42 = mul nsw i32 9, %41
  %43 = load ptr, ptr %13, align 8, !tbaa !100
  %44 = load i32, ptr %18, align 4, !tbaa !49
  %45 = load i32, ptr %19, align 4, !tbaa !49
  %46 = mul nsw i32 %45, 3
  %47 = add nsw i32 %44, %46
  %48 = load i32, ptr %17, align 4, !tbaa !49
  %49 = call i32 @av_clip_c(i32 noundef %47, i32 noundef 0, i32 noundef %48) #14
  %50 = sext i32 %49 to i64
  %51 = getelementptr inbounds i16, ptr %43, i64 %50
  %52 = load i16, ptr %51, align 2, !tbaa !106
  %53 = zext i16 %52 to i32
  %54 = load ptr, ptr %14, align 8, !tbaa !100
  %55 = load i32, ptr %18, align 4, !tbaa !49
  %56 = load i32, ptr %19, align 4, !tbaa !49
  %57 = mul nsw i32 %56, 3
  %58 = sub nsw i32 %55, %57
  %59 = load i32, ptr %17, align 4, !tbaa !49
  %60 = call i32 @av_clip_c(i32 noundef %58, i32 noundef 0, i32 noundef %59) #14
  %61 = sext i32 %60 to i64
  %62 = getelementptr inbounds i16, ptr %54, i64 %61
  %63 = load i16, ptr %62, align 2, !tbaa !106
  %64 = zext i16 %63 to i32
  %65 = add nsw i32 %53, %64
  %66 = mul nsw i32 1, %65
  %67 = sub nsw i32 %42, %66
  %68 = add nsw i32 %67, 8
  %69 = ashr i32 %68, 4
  %70 = load i32, ptr %20, align 4, !tbaa !49
  %71 = call i32 @av_clip_uintp2_c(i32 noundef %69, i32 noundef %70) #14
  ret i32 %71
}